target datalayout = "e-m:e-p270:32:32-p271:32:32-p272:64:64-i64:64-i128:128-f80:128-n8:16:32:64-S128"
target triple = "x86_64-pc-linux-gnu"

%struct.VuDev = type { i32, i32, ptr, ptr, %struct.VuDevInflightInfo, i32, %union.pthread_mutex_t, i32, i64, ptr, i64, i64, i8, i16, ptr, ptr, ptr, ptr, ptr, i32, i8 }
%struct.VuDevInflightInfo = type { i32, ptr, i64 }
%union.pthread_mutex_t = type { %struct.__pthread_mutex_s }
%struct.__pthread_mutex_s = type { i32, i32, i32, i32, i32, i16, i16, %struct.__pthread_internal_list }
%struct.__pthread_internal_list = type { ptr, ptr }
%struct.VhostUserMsg = type <{ i32, i32, i32, %union.anon, [8 x i32], i32, ptr }>
%union.anon = type { %struct.VhostUserMemory, [8 x i8] }
%struct.VhostUserMemory = type { i32, i32, [8 x %struct.VhostUserMemoryRegion] }
%struct.VhostUserMemoryRegion = type { i64, i64, i64, i64 }
%struct.VhostUserLog = type { i64, i64 }

@.str.72 = private unnamed_addr constant [25 x i8] c"Invalid log_base message\00", align 1
@.str.73 = private unnamed_addr constant [15 x i8] c"log mmap error\00", align 1

; Function Attrs: nounwind uwtable
define internal zeroext i1 @vu_set_log_base_exec(ptr noundef %0, ptr noundef %1) #0 {
  %3 = alloca i1, align 1
  %4 = alloca ptr, align 8
  %5 = alloca ptr, align 8
  %6 = alloca i32, align 4
  %7 = alloca i64, align 8
  %8 = alloca i64, align 8
  %9 = alloca ptr, align 8
  %10 = alloca i32, align 4
  store ptr %0, ptr %4, align 8
  store ptr %1, ptr %5, align 8
  call void @llvm.lifetime.start.p0(i64 4, ptr %6) #13
  store i32 0, ptr %6, align 4, !annotation !4
  call void @llvm.lifetime.start.p0(i64 8, ptr %7) #13
  store i64 0, ptr %7, align 8, !annotation !4
  call void @llvm.lifetime.start.p0(i64 8, ptr %8) #13
  store i64 0, ptr %8, align 8, !annotation !4
  call void @llvm.lifetime.start.p0(i64 8, ptr %9) #13
  store ptr null, ptr %9, align 8, !annotation !4
  %11 = load ptr, ptr %5, align 8
  %12 = getelementptr inbounds nuw %struct.VhostUserMsg, ptr %11, i32 0, i32 5
  %13 = load i32, ptr %12, align 1
  %14 = icmp ne i32 %13, 1
  br i1 %14, label %21, label %15

15:                                               ; preds = %2
  %16 = load ptr, ptr %5, align 8
  %17 = getelementptr inbounds nuw %struct.VhostUserMsg, ptr %16, i32 0, i32 2
  %18 = load i32, ptr %17, align 1
  %19 = zext i32 %18 to i64
  %20 = icmp ne i64 %19, 16
  br i1 %20, label %21, label %23

21:                                               ; preds = %15, %2
  %22 = load ptr, ptr %4, align 8
  call void (ptr, ptr, ...) @vu_panic(ptr noundef %22, ptr noundef @.str.72)
  store i1 true, ptr %3, align 1
  store i32 1, ptr %10, align 4
  br label %75

23:                                               ; preds = %15
  %24 = load ptr, ptr %5, align 8
  %25 = getelementptr inbounds nuw %struct.VhostUserMsg, ptr %24, i32 0, i32 4
  %26 = getelementptr inbounds [8 x i32], ptr %25, i64 0, i64 0
  %27 = load i32, ptr %26, align 1
  store i32 %27, ptr %6, align 4
  %28 = load ptr, ptr %5, align 8
  %29 = getelementptr inbounds nuw %struct.VhostUserMsg, ptr %28, i32 0, i32 3
  %30 = getelementptr inbounds nuw %struct.VhostUserLog, ptr %29, i32 0, i32 1
  %31 = load i64, ptr %30, align 1
  store i64 %31, ptr %8, align 8
  %32 = load ptr, ptr %5, align 8
  %33 = getelementptr inbounds nuw %struct.VhostUserMsg, ptr %32, i32 0, i32 3
  %34 = getelementptr inbounds nuw %struct.VhostUserLog, ptr %33, i32 0, i32 0
  %35 = load i64, ptr %34, align 1
  store i64 %35, ptr %7, align 8
  br label %36

36:                                               ; preds = %23
  br label %37

37:                                               ; preds = %36
  br label %38

38:                                               ; preds = %37
  br label %39

39:                                               ; preds = %38
  br label %40

40:                                               ; preds = %39
  br label %41

41:                                               ; preds = %40
  %42 = load i64, ptr %7, align 8
  %43 = load i32, ptr %6, align 4
  %44 = load i64, ptr %8, align 8
  %45 = call ptr @mmap64(ptr noundef null, i64 noundef %42, i32 noundef 3, i32 noundef 1, i32 noundef %43, i64 noundef %44) #13
  store ptr %45, ptr %9, align 8
  %46 = load i32, ptr %6, align 4
  %47 = call i32 @close(i32 noundef %46)
  %48 = load ptr, ptr %9, align 8
  %49 = icmp eq ptr %48, inttoptr (i64 -1 to ptr)
  br i1 %49, label %50, label %51

50:                                               ; preds = %41
  call void @perror(ptr noundef @.str.73)
  br label %51

51:                                               ; preds = %50, %41
  %52 = load ptr, ptr %4, align 8
  %53 = getelementptr inbounds nuw %struct.VuDev, ptr %52, i32 0, i32 9
  %54 = load ptr, ptr %53, align 8
  %55 = icmp ne ptr %54, null
  br i1 %55, label %56, label %64

56:                                               ; preds = %51
  %57 = load ptr, ptr %4, align 8
  %58 = getelementptr inbounds nuw %struct.VuDev, ptr %57, i32 0, i32 9
  %59 = load ptr, ptr %58, align 8
  %60 = load ptr, ptr %4, align 8
  %61 = getelementptr inbounds nuw %struct.VuDev, ptr %60, i32 0, i32 8
  %62 = load i64, ptr %61, align 8
  %63 = call i32 @munmap(ptr noundef %59, i64 noundef %62) #13
  br label %64

64:                                               ; preds = %56, %51
  %65 = load ptr, ptr %9, align 8
  %66 = load ptr, ptr %4, align 8
  %67 = getelementptr inbounds nuw %struct.VuDev, ptr %66, i32 0, i32 9
  store ptr %65, ptr %67, align 8
  %68 = load i64, ptr %7, align 8
  %69 = load ptr, ptr %4, align 8
  %70 = getelementptr inbounds nuw %struct.VuDev, ptr %69, i32 0, i32 8
  store i64 %68, ptr %70, align 8
  %71 = load ptr, ptr %5, align 8
  %72 = getelementptr inbounds nuw %struct.VhostUserMsg, ptr %71, i32 0, i32 2
  store i32 8, ptr %72, align 1
  %73 = load ptr, ptr %5, align 8
  %74 = getelementptr inbounds nuw %struct.VhostUserMsg, ptr %73, i32 0, i32 5
  store i32 0, ptr %74, align 1
  store i1 true, ptr %3, align 1
  store i32 1, ptr %10, align 4
  br label %75

75:                                               ; preds = %64, %21
  call void @llvm.lifetime.end.p0(i64 8, ptr %9) #13
  call void @llvm.lifetime.end.p0(i64 8, ptr %8) #13
  call void @llvm.lifetime.end.p0(i64 8, ptr %7) #13
  call void @llvm.lifetime.end.p0(i64 4, ptr %6) #13
  %76 = load i1, ptr %3, align 1
  ret i1 %76
}