; Function Attrs: nounwind uwtable
define internal fastcc void @vu_set_log_base_exec(ptr noundef %0, ptr noundef nonnull captures(none) %1) unnamed_addr #3 {
  %3 = getelementptr inbounds nuw i8, ptr %1, i64 316
  %4 = load i32, ptr %3, align 1
  %.not = icmp eq i32 %4, 1
  br i1 %.not, label %5, label %8

5:                                                ; preds = %2
  %6 = getelementptr inbounds nuw i8, ptr %1, i64 8
  %7 = load i32, ptr %6, align 1
  %.not20 = icmp eq i32 %7, 16
  br i1 %.not20, label %9, label %8

8:                                                ; preds = %5, %2
  tail call void (ptr, ptr, ...) @vu_panic(ptr noundef %0, ptr noundef nonnull @.str.72)
  br label %29

9:                                                ; preds = %5
  %10 = getelementptr inbounds nuw i8, ptr %1, i64 284
  %11 = load i32, ptr %10, align 1
  %12 = getelementptr inbounds nuw i8, ptr %1, i64 12
  %13 = getelementptr inbounds nuw i8, ptr %1, i64 20
  %14 = load i64, ptr %13, align 1
  %15 = load i64, ptr %12, align 1
  %16 = tail call ptr @mmap64(ptr noundef null, i64 noundef %15, i32 noundef 3, i32 noundef 1, i32 noundef %11, i64 noundef %14) #21
  %17 = tail call i32 @close(i32 noundef %11) #21
  %18 = icmp eq ptr %16, inttoptr (i64 -1 to ptr)
  br i1 %18, label %19, label %20

19:                                               ; preds = %9
  tail call void @perror(ptr noundef nonnull @.str.73) #24
  br label %20

20:                                               ; preds = %19, %9
  %21 = getelementptr inbounds nuw i8, ptr %0, i64 112
  %22 = load ptr, ptr %21, align 8
  %.not21 = icmp eq ptr %22, null
  br i1 %.not21, label %27, label %23

23:                                               ; preds = %20
  %24 = getelementptr inbounds nuw i8, ptr %0, i64 104
  %25 = load i64, ptr %24, align 8
  %26 = tail call i32 @munmap(ptr noundef nonnull %22, i64 noundef %25) #21
  br label %27

27:                                               ; preds = %23, %20
  store ptr %16, ptr %21, align 8
  %28 = getelementptr inbounds nuw i8, ptr %0, i64 104
  store i64 %15, ptr %28, align 8
  store i32 8, ptr %6, align 1
  store i32 0, ptr %3, align 1
  br label %29

29:                                               ; preds = %27, %8
  ret void
}